---
triple:          'arm64-apple-darwin'
binary-path:     '/Users/mohaosman/Desktop/projects/cpp-programs/dsa/q1'
relocations:
  - { offsetInCU: 0x3181, offset: 0x3181, size: 0x8, addend: 0x0, symName: __ZNSt3__124__put_character_sequenceB7v160006IcNS_11char_traitsIcEEEERNS_13basic_ostreamIT_T0_EES7_PKS4_m, symObjAddr: 0x14FC, symBinAddr: 0x100005368, symSize: 0x1EC }
  - { offsetInCU: 0x4FD0, offset: 0x4FD0, size: 0x8, addend: 0x0, symName: __ZNSt3__1lsB7v160006INS_11char_traitsIcEEEERNS_13basic_ostreamIcT_EES6_PKc, symObjAddr: 0xA4, symBinAddr: 0x100003F10, symSize: 0x48 }
  - { offsetInCU: 0x5016, offset: 0x5016, size: 0x8, addend: 0x0, symName: __ZNSt3__14endlB7v160006IcNS_11char_traitsIcEEEERNS_13basic_ostreamIT_T0_EES7_, symObjAddr: 0x294, symBinAddr: 0x100004100, symSize: 0x58 }
  - { offsetInCU: 0x5056, offset: 0x5056, size: 0x8, addend: 0x0, symName: __ZNSt3__17getlineB7v160006IcNS_11char_traitsIcEENS_9allocatorIcEEEERNS_13basic_istreamIT_T0_EES9_RNS_12basic_stringIS6_S7_T1_EE, symObjAddr: 0x2EC, symBinAddr: 0x100004158, symSize: 0x5C }
  - { offsetInCU: 0x50AE, offset: 0x50AE, size: 0x8, addend: 0x0, symName: __ZNSt3__1rsB7v160006IcNS_11char_traitsIcEENS_9allocatorIcEEEERNS_13basic_istreamIT_T0_EES9_RNS_12basic_stringIS6_S7_T1_EE, symObjAddr: 0x348, symBinAddr: 0x1000041B4, symSize: 0x308 }
  - { offsetInCU: 0x6A21, offset: 0x6A21, size: 0x8, addend: 0x0, symName: __ZNSt3__1neB7v160006ERKNS_15__list_iteratorI7studentPvEES5_, symObjAddr: 0xA18, symBinAddr: 0x100004884, symSize: 0x34 }
  - { offsetInCU: 0x6A5E, offset: 0x6A5E, size: 0x8, addend: 0x0, symName: __ZNSt3__1eqB7v160006INS_9allocatorIcEEEEbRKNS_12basic_stringIcNS_11char_traitsIcEET_EES9_, symObjAddr: 0xA78, symBinAddr: 0x1000048E4, symSize: 0x148 }
  - { offsetInCU: 0x6AD1, offset: 0x6AD1, size: 0x8, addend: 0x0, symName: __ZNSt3__1lsB7v160006IcNS_11char_traitsIcEENS_9allocatorIcEEEERNS_13basic_ostreamIT_T0_EES9_RKNS_12basic_stringIS6_S7_T1_EE, symObjAddr: 0xBF0, symBinAddr: 0x100004A5C, symSize: 0x4C }
  - { offsetInCU: 0x6B29, offset: 0x6B29, size: 0x8, addend: 0x0, symName: __ZNSt3__118__debug_db_erase_cB7v160006INS_10__list_impI7studentNS_9allocatorIS2_EEEEEEvPT_, symObjAddr: 0x112C, symBinAddr: 0x100004F98, symSize: 0x10 }
  - { offsetInCU: 0x6B5A, offset: 0x6B5A, size: 0x8, addend: 0x0, symName: __ZNSt3__125__debug_db_invalidate_allB7v160006INS_10__list_impI7studentNS_9allocatorIS2_EEEEEEvPT_, symObjAddr: 0x12CC, symBinAddr: 0x100005138, symSize: 0x10 }
  - { offsetInCU: 0x6BBE, offset: 0x6BBE, size: 0x8, addend: 0x0, symName: __ZNSt3__119__libcpp_deallocateB7v160006EPvmm, symObjAddr: 0x143C, symBinAddr: 0x1000052A8, symSize: 0x30 }
  - { offsetInCU: 0x6C06, offset: 0x6C06, size: 0x8, addend: 0x0, symName: __ZNSt3__127__do_deallocate_handle_sizeB7v160006IJEEEvPvmDpT_, symObjAddr: 0x146C, symBinAddr: 0x1000052D8, symSize: 0x28 }
  - { offsetInCU: 0x6C44, offset: 0x6C44, size: 0x8, addend: 0x0, symName: __ZNSt3__124__libcpp_operator_deleteB7v160006IJPvEEEvDpT_, symObjAddr: 0x1494, symBinAddr: 0x100005300, symSize: 0x24 }
  - { offsetInCU: 0x6C79, offset: 0x6C79, size: 0x8, addend: 0x0, symName: __ZNSt3__116__pad_and_outputB7v160006IcNS_11char_traitsIcEEEENS_19ostreambuf_iteratorIT_T0_EES6_PKS4_S8_S8_RNS_8ios_baseES4_, symObjAddr: 0x1738, symBinAddr: 0x1000055A4, symSize: 0x240 }
  - { offsetInCU: 0x6D48, offset: 0x6D48, size: 0x8, addend: 0x0, symName: __ZNSt3__119__debug_db_insert_cB7v160006INS_12basic_stringIcNS_11char_traitsIcEENS_9allocatorIcEEEEEEvPT_, symObjAddr: 0x1BEC, symBinAddr: 0x100005A58, symSize: 0x10 }
  - { offsetInCU: 0x6D79, offset: 0x6D79, size: 0x8, addend: 0x0, symName: __ZNSt3__112__to_addressB7v160006IKcEEPT_S3_, symObjAddr: 0x1CB8, symBinAddr: 0x100005B24, symSize: 0x14 }
  - { offsetInCU: 0x6DE1, offset: 0x6DE1, size: 0x8, addend: 0x0, symName: __ZNSt3__19use_facetB7v160006INS_5ctypeIcEEEERKT_RKNS_6localeE, symObjAddr: 0x1F38, symBinAddr: 0x100005DA4, symSize: 0x2C }
  - { offsetInCU: 0x71C1, offset: 0x71C1, size: 0x8, addend: 0x0, symName: __ZNSt3__118__constexpr_strlenB7v160006EPKc, symObjAddr: 0x1FD0, symBinAddr: 0x100005E3C, symSize: 0x24 }
  - { offsetInCU: 0x71ED, offset: 0x71ED, size: 0x8, addend: 0x0, symName: __ZNSt3__17getlineB7v160006IcNS_11char_traitsIcEENS_9allocatorIcEEEERNS_13basic_istreamIT_T0_EES9_RNS_12basic_stringIS6_S7_T1_EES6_, symObjAddr: 0x1FF4, symBinAddr: 0x100005E60, symSize: 0x238 }
  - { offsetInCU: 0x7835, offset: 0x7835, size: 0x8, addend: 0x0, symName: __ZNSt3__125__debug_db_invalidate_allB7v160006INS_12basic_stringIcNS_11char_traitsIcEENS_9allocatorIcEEEEEEvPT_, symObjAddr: 0x2510, symBinAddr: 0x10000637C, symSize: 0x10 }
  - { offsetInCU: 0x7C9C, offset: 0x7C9C, size: 0x8, addend: 0x0, symName: __ZNSt3__1eqB7v160006ERKNS_15__list_iteratorI7studentPvEES5_, symObjAddr: 0x2A50, symBinAddr: 0x1000068BC, symSize: 0x30 }
  - { offsetInCU: 0x7D0C, offset: 0x7D0C, size: 0x8, addend: 0x0, symName: __ZNSt3__118__constexpr_memcmpB7v160006IcEEiPKT_S3_m, symObjAddr: 0x2B20, symBinAddr: 0x10000698C, symSize: 0x34 }
  - { offsetInCU: 0x7D5D, offset: 0x7D5D, size: 0x8, addend: 0x0, symName: __ZNSt3__119__debug_db_insert_cB7v160006INS_4listI7studentNS_9allocatorIS2_EEEEEEvPT_, symObjAddr: 0x2BE0, symBinAddr: 0x100006A4C, symSize: 0x10 }
  - { offsetInCU: 0x7DAC, offset: 0x7DAC, size: 0x8, addend: 0x0, symName: __ZNSt3__117__libcpp_allocateB7v160006Emm, symObjAddr: 0x30B4, symBinAddr: 0x100006F20, symSize: 0x28 }
  - { offsetInCU: 0x7DE9, offset: 0x7DE9, size: 0x8, addend: 0x0, symName: __ZNSt3__121__libcpp_operator_newB7v160006IJmEEEPvDpT_, symObjAddr: 0x30FC, symBinAddr: 0x100006F68, symSize: 0x24 }
  - { offsetInCU: 0x7E22, offset: 0x7E22, size: 0x8, addend: 0x0, symName: __ZNSt3__1neB7v160006ERKNS_21__list_const_iteratorI7studentPvEES5_, symObjAddr: 0x36D0, symBinAddr: 0x10000753C, symSize: 0x34 }
  - { offsetInCU: 0x7E5F, offset: 0x7E5F, size: 0x8, addend: 0x0, symName: __ZNSt3__1eqB7v160006ERKNS_21__list_const_iteratorI7studentPvEES5_, symObjAddr: 0x38EC, symBinAddr: 0x100007758, symSize: 0x30 }
  - { offsetInCU: 0x7FC1, offset: 0x7FC1, size: 0x8, addend: 0x0, symName: __ZSt28__throw_bad_array_new_lengthB7v160006v, symObjAddr: 0x3080, symBinAddr: 0x100006EEC, symSize: 0x34 }
  - { offsetInCU: 0xA4F4, offset: 0xA4F4, size: 0x8, addend: 0x0, symName: __Z4menuv, symObjAddr: 0x0, symBinAddr: 0x100003E6C, symSize: 0xA4 }
  - { offsetInCU: 0xA522, offset: 0xA522, size: 0x8, addend: 0x0, symName: __Z9newRecordP7student, symObjAddr: 0xEC, symBinAddr: 0x100003F58, symSize: 0x17C }
  - { offsetInCU: 0xA54B, offset: 0xA54B, size: 0x8, addend: 0x0, symName: __ZNSt3__113basic_ostreamIcNS_11char_traitsIcEEElsB7v160006EPFRS3_S4_E, symObjAddr: 0x268, symBinAddr: 0x1000040D4, symSize: 0x2C }
  - { offsetInCU: 0xA57F, offset: 0xA57F, size: 0x8, addend: 0x0, symName: __ZNSt3__112basic_stringIcNS_11char_traitsIcEENS_9allocatorIcEEEaSB7v160006EPKc, symObjAddr: 0x650, symBinAddr: 0x1000044BC, symSize: 0x2C }
  - { offsetInCU: 0xA5B4, offset: 0xA5B4, size: 0x8, addend: 0x0, symName: __Z13displayRecordNSt3__14listI7studentNS_9allocatorIS1_EEEE, symObjAddr: 0x67C, symBinAddr: 0x1000044E8, symSize: 0x344 }
  - { offsetInCU: 0xA631, offset: 0xA631, size: 0x8, addend: 0x0, symName: __ZNSt3__112basic_stringIcNS_11char_traitsIcEENS_9allocatorIcEEEC1B7v160006Ev, symObjAddr: 0x9C0, symBinAddr: 0x10000482C, symSize: 0x2C }
  - { offsetInCU: 0xA885, offset: 0xA885, size: 0x8, addend: 0x0, symName: __ZNSt3__14listI7studentNS_9allocatorIS1_EEE5beginB7v160006Ev, symObjAddr: 0x9EC, symBinAddr: 0x100004858, symSize: 0x2C }
  - { offsetInCU: 0xA8AB, offset: 0xA8AB, size: 0x8, addend: 0x0, symName: __ZNSt3__14listI7studentNS_9allocatorIS1_EEE3endB7v160006Ev, symObjAddr: 0xA4C, symBinAddr: 0x1000048B8, symSize: 0x2C }
  - { offsetInCU: 0xA8D1, offset: 0xA8D1, size: 0x8, addend: 0x0, symName: __ZNKSt3__115__list_iteratorI7studentPvEptB7v160006Ev, symObjAddr: 0xBC0, symBinAddr: 0x100004A2C, symSize: 0x30 }
  - { offsetInCU: 0xA8F7, offset: 0xA8F7, size: 0x8, addend: 0x0, symName: __ZNSt3__115__list_iteratorI7studentPvEppB7v160006Ei, symObjAddr: 0xC3C, symBinAddr: 0x100004AA8, symSize: 0x34 }
  - { offsetInCU: 0xA938, offset: 0xA938, size: 0x8, addend: 0x0, symName: __Z12deleteRecordv, symObjAddr: 0xC70, symBinAddr: 0x100004ADC, symSize: 0x4 }
  - { offsetInCU: 0xA952, offset: 0xA952, size: 0x8, addend: 0x0, symName: __Z12updateRecordv, symObjAddr: 0xC74, symBinAddr: 0x100004AE0, symSize: 0x4 }
  - { offsetInCU: 0xA96C, offset: 0xA96C, size: 0x8, addend: 0x0, symName: _main, symObjAddr: 0xC78, symBinAddr: 0x100004AE4, symSize: 0x144 }
  - { offsetInCU: 0xA9B4, offset: 0xA9B4, size: 0x8, addend: 0x0, symName: __ZNSt3__14listI7studentNS_9allocatorIS1_EEEC1B7v160006Ev, symObjAddr: 0xDBC, symBinAddr: 0x100004C28, symSize: 0x2C }
  - { offsetInCU: 0xA9E3, offset: 0xA9E3, size: 0x8, addend: 0x0, symName: __ZN7studentC1Ev, symObjAddr: 0xDE8, symBinAddr: 0x100004C54, symSize: 0x2C }
  - { offsetInCU: 0xAA0F, offset: 0xAA0F, size: 0x8, addend: 0x0, symName: __ZNSt3__14listI7studentNS_9allocatorIS1_EEE9push_backERKS1_, symObjAddr: 0xE14, symBinAddr: 0x100004C80, symSize: 0xF4 }
  - { offsetInCU: 0xAA64, offset: 0xAA64, size: 0x8, addend: 0x0, symName: __ZNSt3__14listI7studentNS_9allocatorIS1_EEEC1ERKS4_, symObjAddr: 0xF08, symBinAddr: 0x100004D74, symSize: 0x34 }
  - { offsetInCU: 0xAA9F, offset: 0xAA9F, size: 0x8, addend: 0x0, symName: __ZNSt3__14listI7studentNS_9allocatorIS1_EEED1Ev, symObjAddr: 0xF3C, symBinAddr: 0x100004DA8, symSize: 0x2C }
  - { offsetInCU: 0xAACC, offset: 0xAACC, size: 0x8, addend: 0x0, symName: __ZN7studentD1Ev, symObjAddr: 0xF68, symBinAddr: 0x100004DD4, symSize: 0x2C }
  - { offsetInCU: 0xAAF8, offset: 0xAAF8, size: 0x8, addend: 0x0, symName: __ZN7studentC2Ev, symObjAddr: 0xF94, symBinAddr: 0x100004E00, symSize: 0x44 }
  - { offsetInCU: 0xAB24, offset: 0xAB24, size: 0x8, addend: 0x0, symName: __ZNSt3__14listI7studentNS_9allocatorIS1_EEED2Ev, symObjAddr: 0xFD8, symBinAddr: 0x100004E44, symSize: 0x2C }
  - { offsetInCU: 0xAB51, offset: 0xAB51, size: 0x8, addend: 0x0, symName: __ZNSt3__110__list_impI7studentNS_9allocatorIS1_EEED2Ev, symObjAddr: 0x1004, symBinAddr: 0x100004E70, symSize: 0x3C }
  - { offsetInCU: 0xAB7D, offset: 0xAB7D, size: 0x8, addend: 0x0, symName: __ZNSt3__110__list_impI7studentNS_9allocatorIS1_EEE5clearEv, symObjAddr: 0x1040, symBinAddr: 0x100004EAC, symSize: 0xEC }
  - { offsetInCU: 0xABED, offset: 0xABED, size: 0x8, addend: 0x0, symName: __ZNKSt3__110__list_impI7studentNS_9allocatorIS1_EEE5emptyB7v160006Ev, symObjAddr: 0x1148, symBinAddr: 0x100004FB4, symSize: 0x34 }
  - { offsetInCU: 0xAC13, offset: 0xAC13, size: 0x8, addend: 0x0, symName: __ZNSt3__110__list_impI7studentNS_9allocatorIS1_EEE12__node_allocB7v160006Ev, symObjAddr: 0x117C, symBinAddr: 0x100004FE8, symSize: 0x28 }
  - { offsetInCU: 0xAC39, offset: 0xAC39, size: 0x8, addend: 0x0, symName: __ZNKSt3__110__list_impI7studentNS_9allocatorIS1_EEE13__end_as_linkB7v160006Ev, symObjAddr: 0x11A4, symBinAddr: 0x100005010, symSize: 0x44 }
  - { offsetInCU: 0xAC5F, offset: 0xAC5F, size: 0x8, addend: 0x0, symName: __ZNSt3__110__list_impI7studentNS_9allocatorIS1_EEE14__unlink_nodesEPNS_16__list_node_baseIS1_PvEES8_, symObjAddr: 0x11E8, symBinAddr: 0x100005054, symSize: 0x3C }
  - { offsetInCU: 0xAC94, offset: 0xAC94, size: 0x8, addend: 0x0, symName: __ZNSt3__110__list_impI7studentNS_9allocatorIS1_EEE4__szB7v160006Ev, symObjAddr: 0x1224, symBinAddr: 0x100005090, symSize: 0x28 }
  - { offsetInCU: 0xACBA, offset: 0xACBA, size: 0x8, addend: 0x0, symName: __ZNSt3__116__list_node_baseI7studentPvE9__as_nodeB7v160006Ev, symObjAddr: 0x124C, symBinAddr: 0x1000050B8, symSize: 0x24 }
  - { offsetInCU: 0xACE0, offset: 0xACE0, size: 0x8, addend: 0x0, symName: __ZNSt3__116allocator_traitsINS_9allocatorINS_11__list_nodeI7studentPvEEEEE7destroyB7v160006IS3_vvEEvRS6_PT_, symObjAddr: 0x1270, symBinAddr: 0x1000050DC, symSize: 0x28 }
  - { offsetInCU: 0xAD1B, offset: 0xAD1B, size: 0x8, addend: 0x0, symName: __ZNSt3__116allocator_traitsINS_9allocatorINS_11__list_nodeI7studentPvEEEEE10deallocateB7v160006ERS6_PS5_m, symObjAddr: 0x1298, symBinAddr: 0x100005104, symSize: 0x34 }
  - { offsetInCU: 0xAD5D, offset: 0xAD5D, size: 0x8, addend: 0x0, symName: __ZNKSt3__110__list_impI7studentNS_9allocatorIS1_EEE4__szB7v160006Ev, symObjAddr: 0x12DC, symBinAddr: 0x100005148, symSize: 0x28 }
  - { offsetInCU: 0xAD83, offset: 0xAD83, size: 0x8, addend: 0x0, symName: __ZNKSt3__117__compressed_pairImNS_9allocatorINS_11__list_nodeI7studentPvEEEEE5firstB7v160006Ev, symObjAddr: 0x1304, symBinAddr: 0x100005170, symSize: 0x24 }
  - { offsetInCU: 0xADA9, offset: 0xADA9, size: 0x8, addend: 0x0, symName: __ZNKSt3__122__compressed_pair_elemImLi0ELb0EE5__getB7v160006Ev, symObjAddr: 0x1328, symBinAddr: 0x100005194, symSize: 0x14 }
  - { offsetInCU: 0xADCF, offset: 0xADCF, size: 0x8, addend: 0x0, symName: __ZNSt3__117__compressed_pairImNS_9allocatorINS_11__list_nodeI7studentPvEEEEE6secondB7v160006Ev, symObjAddr: 0x133C, symBinAddr: 0x1000051A8, symSize: 0x24 }
  - { offsetInCU: 0xADF5, offset: 0xADF5, size: 0x8, addend: 0x0, symName: __ZNSt3__122__compressed_pair_elemINS_9allocatorINS_11__list_nodeI7studentPvEEEELi1ELb1EE5__getB7v160006Ev, symObjAddr: 0x1360, symBinAddr: 0x1000051CC, symSize: 0x14 }
  - { offsetInCU: 0xAE1B, offset: 0xAE1B, size: 0x8, addend: 0x0, symName: __ZNSt3__126__list_node_pointer_traitsI7studentPvE26__unsafe_link_pointer_castB7v160006EPNS_16__list_node_baseIS1_S2_EE, symObjAddr: 0x1374, symBinAddr: 0x1000051E0, symSize: 0x14 }
  - { offsetInCU: 0xAE3F, offset: 0xAE3F, size: 0x8, addend: 0x0, symName: __ZNSt3__116__list_node_baseI7studentPvE6__selfB7v160006Ev, symObjAddr: 0x1388, symBinAddr: 0x1000051F4, symSize: 0x24 }
  - { offsetInCU: 0xAE6A, offset: 0xAE6A, size: 0x8, addend: 0x0, symName: __ZNSt3__114pointer_traitsIPNS_16__list_node_baseI7studentPvEEE10pointer_toB7v160006ERS4_, symObjAddr: 0x13AC, symBinAddr: 0x100005218, symSize: 0x14 }
  - { offsetInCU: 0xAE8D, offset: 0xAE8D, size: 0x8, addend: 0x0, symName: __ZNSt3__117__compressed_pairImNS_9allocatorINS_11__list_nodeI7studentPvEEEEE5firstB7v160006Ev, symObjAddr: 0x13C0, symBinAddr: 0x10000522C, symSize: 0x24 }
  - { offsetInCU: 0xAEB3, offset: 0xAEB3, size: 0x8, addend: 0x0, symName: __ZNSt3__122__compressed_pair_elemImLi0ELb0EE5__getB7v160006Ev, symObjAddr: 0x13E4, symBinAddr: 0x100005250, symSize: 0x14 }
  - { offsetInCU: 0xAED9, offset: 0xAED9, size: 0x8, addend: 0x0, symName: __ZNSt3__19allocatorINS_11__list_nodeI7studentPvEEE10deallocateB7v160006EPS4_m, symObjAddr: 0x13F8, symBinAddr: 0x100005264, symSize: 0x44 }
  - { offsetInCU: 0xAF1B, offset: 0xAF1B, size: 0x8, addend: 0x0, symName: __ZN7studentD2Ev, symObjAddr: 0x14B8, symBinAddr: 0x100005324, symSize: 0x44 }
  - { offsetInCU: 0xAF47, offset: 0xAF47, size: 0x8, addend: 0x0, symName: __ZNSt3__111char_traitsIcE6lengthEPKc, symObjAddr: 0x16E8, symBinAddr: 0x100005554, symSize: 0x34 }
  - { offsetInCU: 0xAF88, offset: 0xAF88, size: 0x8, addend: 0x0, symName: __ZNKSt3__113basic_ostreamIcNS_11char_traitsIcEEE6sentrycvbB7v160006Ev, symObjAddr: 0x171C, symBinAddr: 0x100005588, symSize: 0x1C }
  - { offsetInCU: 0xAFAE, offset: 0xAFAE, size: 0x8, addend: 0x0, symName: __ZNSt3__119ostreambuf_iteratorIcNS_11char_traitsIcEEEC1B7v160006ERNS_13basic_ostreamIcS2_EE, symObjAddr: 0x1978, symBinAddr: 0x1000057E4, symSize: 0x34 }
  - { offsetInCU: 0xAFE6, offset: 0xAFE6, size: 0x8, addend: 0x0, symName: __ZNKSt3__18ios_base5flagsB7v160006Ev, symObjAddr: 0x19AC, symBinAddr: 0x100005818, symSize: 0x18 }
  - { offsetInCU: 0xB00E, offset: 0xB00E, size: 0x8, addend: 0x0, symName: __ZNKSt3__19basic_iosIcNS_11char_traitsIcEEE4fillB7v160006Ev, symObjAddr: 0x19C4, symBinAddr: 0x100005830, symSize: 0x64 }
  - { offsetInCU: 0xB036, offset: 0xB036, size: 0x8, addend: 0x0, symName: __ZNKSt3__119ostreambuf_iteratorIcNS_11char_traitsIcEEE6failedB7v160006Ev, symObjAddr: 0x1A28, symBinAddr: 0x100005894, symSize: 0x24 }
  - { offsetInCU: 0xB05C, offset: 0xB05C, size: 0x8, addend: 0x0, symName: __ZNSt3__19basic_iosIcNS_11char_traitsIcEEE8setstateB7v160006Ej, symObjAddr: 0x1A4C, symBinAddr: 0x1000058B8, symSize: 0x2C }
  - { offsetInCU: 0xB091, offset: 0xB091, size: 0x8, addend: 0x0, symName: __ZNKSt3__18ios_base5widthB7v160006Ev, symObjAddr: 0x1A78, symBinAddr: 0x1000058E4, symSize: 0x18 }
  - { offsetInCU: 0xB0B9, offset: 0xB0B9, size: 0x8, addend: 0x0, symName: __ZNSt3__115basic_streambufIcNS_11char_traitsIcEEE5sputnB7v160006EPKcl, symObjAddr: 0x1A90, symBinAddr: 0x1000058FC, symSize: 0x3C }
  - { offsetInCU: 0xB0FB, offset: 0xB0FB, size: 0x8, addend: 0x0, symName: __ZNSt3__112basic_stringIcNS_11char_traitsIcEENS_9allocatorIcEEEC1B7v160006Emc, symObjAddr: 0x1ACC, symBinAddr: 0x100005938, symSize: 0x3C }
  - { offsetInCU: 0xB143, offset: 0xB143, size: 0x8, addend: 0x0, symName: __ZNKSt3__112basic_stringIcNS_11char_traitsIcEENS_9allocatorIcEEE4dataB7v160006Ev, symObjAddr: 0x1B08, symBinAddr: 0x100005974, symSize: 0x28 }
  - { offsetInCU: 0xB169, offset: 0xB169, size: 0x8, addend: 0x0, symName: __ZNSt3__18ios_base5widthB7v160006El, symObjAddr: 0x1B30, symBinAddr: 0x10000599C, symSize: 0x2C }
  - { offsetInCU: 0xB1AF, offset: 0xB1AF, size: 0x8, addend: 0x0, symName: __ZNSt3__112basic_stringIcNS_11char_traitsIcEENS_9allocatorIcEEEC2B7v160006Emc, symObjAddr: 0x1B5C, symBinAddr: 0x1000059C8, symSize: 0x54 }
  - { offsetInCU: 0xB1FC, offset: 0xB1FC, size: 0x8, addend: 0x0, symName: __ZNSt3__117__compressed_pairINS_12basic_stringIcNS_11char_traitsIcEENS_9allocatorIcEEE5__repES5_EC1B7v160006INS_18__default_init_tagESA_EEOT_OT0_, symObjAddr: 0x1BB0, symBinAddr: 0x100005A1C, symSize: 0x3C }
  - { offsetInCU: 0xB254, offset: 0xB254, size: 0x8, addend: 0x0, symName: __ZNSt3__117__compressed_pairINS_12basic_stringIcNS_11char_traitsIcEENS_9allocatorIcEEE5__repES5_EC2B7v160006INS_18__default_init_tagESA_EEOT_OT0_, symObjAddr: 0x1BFC, symBinAddr: 0x100005A68, symSize: 0x3C }
  - { offsetInCU: 0xB2AC, offset: 0xB2AC, size: 0x8, addend: 0x0, symName: __ZNSt3__122__compressed_pair_elemINS_12basic_stringIcNS_11char_traitsIcEENS_9allocatorIcEEE5__repELi0ELb0EEC2B7v160006ENS_18__default_init_tagE, symObjAddr: 0x1C38, symBinAddr: 0x100005AA4, symSize: 0x14 }
  - { offsetInCU: 0xB2E1, offset: 0xB2E1, size: 0x8, addend: 0x0, symName: __ZNSt3__122__compressed_pair_elemINS_9allocatorIcEELi1ELb1EEC2B7v160006ENS_18__default_init_tagE, symObjAddr: 0x1C4C, symBinAddr: 0x100005AB8, symSize: 0x2C }
  - { offsetInCU: 0xB316, offset: 0xB316, size: 0x8, addend: 0x0, symName: __ZNSt3__19allocatorIcEC2B7v160006Ev, symObjAddr: 0x1C78, symBinAddr: 0x100005AE4, symSize: 0x2C }
  - { offsetInCU: 0xB340, offset: 0xB340, size: 0x8, addend: 0x0, symName: __ZNSt3__116__non_trivial_ifILb1ENS_9allocatorIcEEEC2B7v160006Ev, symObjAddr: 0x1CA4, symBinAddr: 0x100005B10, symSize: 0x14 }
  - { offsetInCU: 0xB36A, offset: 0xB36A, size: 0x8, addend: 0x0, symName: __ZNKSt3__112basic_stringIcNS_11char_traitsIcEENS_9allocatorIcEEE13__get_pointerB7v160006Ev, symObjAddr: 0x1CCC, symBinAddr: 0x100005B38, symSize: 0x54 }
  - { offsetInCU: 0xB390, offset: 0xB390, size: 0x8, addend: 0x0, symName: __ZNKSt3__112basic_stringIcNS_11char_traitsIcEENS_9allocatorIcEEE9__is_longB7v160006Ev, symObjAddr: 0x1D20, symBinAddr: 0x100005B8C, symSize: 0x38 }
  - { offsetInCU: 0xB3B6, offset: 0xB3B6, size: 0x8, addend: 0x0, symName: __ZNKSt3__112basic_stringIcNS_11char_traitsIcEENS_9allocatorIcEEE18__get_long_pointerB7v160006Ev, symObjAddr: 0x1D58, symBinAddr: 0x100005BC4, symSize: 0x28 }
  - { offsetInCU: 0xB3DC, offset: 0xB3DC, size: 0x8, addend: 0x0, symName: __ZNKSt3__112basic_stringIcNS_11char_traitsIcEENS_9allocatorIcEEE19__get_short_pointerB7v160006Ev, symObjAddr: 0x1D80, symBinAddr: 0x100005BEC, symSize: 0x28 }
  - { offsetInCU: 0xB402, offset: 0xB402, size: 0x8, addend: 0x0, symName: __ZNKSt3__117__compressed_pairINS_12basic_stringIcNS_11char_traitsIcEENS_9allocatorIcEEE5__repES5_E5firstB7v160006Ev, symObjAddr: 0x1DA8, symBinAddr: 0x100005C14, symSize: 0x24 }
  - { offsetInCU: 0xB428, offset: 0xB428, size: 0x8, addend: 0x0, symName: __ZNKSt3__122__compressed_pair_elemINS_12basic_stringIcNS_11char_traitsIcEENS_9allocatorIcEEE5__repELi0ELb0EE5__getB7v160006Ev, symObjAddr: 0x1DCC, symBinAddr: 0x100005C38, symSize: 0x14 }
  - { offsetInCU: 0xB44E, offset: 0xB44E, size: 0x8, addend: 0x0, symName: __ZNSt3__114pointer_traitsIPKcE10pointer_toB7v160006ERS1_, symObjAddr: 0x1DE0, symBinAddr: 0x100005C4C, symSize: 0x14 }
  - { offsetInCU: 0xB471, offset: 0xB471, size: 0x8, addend: 0x0, symName: __ZNSt3__119ostreambuf_iteratorIcNS_11char_traitsIcEEEC2B7v160006ERNS_13basic_ostreamIcS2_EE, symObjAddr: 0x1DF4, symBinAddr: 0x100005C60, symSize: 0x54 }
  - { offsetInCU: 0xB4A9, offset: 0xB4A9, size: 0x8, addend: 0x0, symName: __ZNKSt3__19basic_iosIcNS_11char_traitsIcEEE5rdbufB7v160006Ev, symObjAddr: 0x1E48, symBinAddr: 0x100005CB4, symSize: 0x24 }
  - { offsetInCU: 0xB4D1, offset: 0xB4D1, size: 0x8, addend: 0x0, symName: __ZNKSt3__18ios_base5rdbufB7v160006Ev, symObjAddr: 0x1E6C, symBinAddr: 0x100005CD8, symSize: 0x18 }
  - { offsetInCU: 0xB4F7, offset: 0xB4F7, size: 0x8, addend: 0x0, symName: __ZNSt3__111char_traitsIcE11eq_int_typeEii, symObjAddr: 0x1E84, symBinAddr: 0x100005CF0, symSize: 0x28 }
  - { offsetInCU: 0xB528, offset: 0xB528, size: 0x8, addend: 0x0, symName: __ZNSt3__111char_traitsIcE3eofEv, symObjAddr: 0x1EAC, symBinAddr: 0x100005D18, symSize: 0x8 }
  - { offsetInCU: 0xB53C, offset: 0xB53C, size: 0x8, addend: 0x0, symName: __ZNKSt3__19basic_iosIcNS_11char_traitsIcEEE5widenB7v160006Ec, symObjAddr: 0x1EB4, symBinAddr: 0x100005D20, symSize: 0x84 }
  - { offsetInCU: 0xB5A0, offset: 0xB5A0, size: 0x8, addend: 0x0, symName: __ZNKSt3__15ctypeIcE5widenB7v160006Ec, symObjAddr: 0x1F64, symBinAddr: 0x100005DD0, symSize: 0x38 }
  - { offsetInCU: 0xB5D5, offset: 0xB5D5, size: 0x8, addend: 0x0, symName: __ZNSt3__18ios_base8setstateB7v160006Ej, symObjAddr: 0x1F9C, symBinAddr: 0x100005E08, symSize: 0x34 }
  - { offsetInCU: 0xB699, offset: 0xB699, size: 0x8, addend: 0x0, symName: __ZNKSt3__113basic_istreamIcNS_11char_traitsIcEEE6sentrycvbB7v160006Ev, symObjAddr: 0x222C, symBinAddr: 0x100006098, symSize: 0x1C }
  - { offsetInCU: 0xB6BF, offset: 0xB6BF, size: 0x8, addend: 0x0, symName: __ZNSt3__112basic_stringIcNS_11char_traitsIcEENS_9allocatorIcEEE5clearB7v160006Ev, symObjAddr: 0x2248, symBinAddr: 0x1000060B4, symSize: 0x88 }
  - { offsetInCU: 0xB6E7, offset: 0xB6E7, size: 0x8, addend: 0x0, symName: __ZNSt3__115basic_streambufIcNS_11char_traitsIcEEE6sbumpcB7v160006Ev, symObjAddr: 0x22D0, symBinAddr: 0x10000613C, symSize: 0x78 }
  - { offsetInCU: 0xB70D, offset: 0xB70D, size: 0x8, addend: 0x0, symName: __ZNSt3__111char_traitsIcE12to_char_typeEi, symObjAddr: 0x2348, symBinAddr: 0x1000061B4, symSize: 0x18 }
  - { offsetInCU: 0xB730, offset: 0xB730, size: 0x8, addend: 0x0, symName: __ZNSt3__111char_traitsIcE2eqEcc, symObjAddr: 0x2360, symBinAddr: 0x1000061CC, symSize: 0x28 }
  - { offsetInCU: 0xB761, offset: 0xB761, size: 0x8, addend: 0x0, symName: __ZNKSt3__112basic_stringIcNS_11char_traitsIcEENS_9allocatorIcEEE4sizeB7v160006Ev, symObjAddr: 0x2388, symBinAddr: 0x1000061F4, symSize: 0x54 }
  - { offsetInCU: 0xB787, offset: 0xB787, size: 0x8, addend: 0x0, symName: __ZNKSt3__112basic_stringIcNS_11char_traitsIcEENS_9allocatorIcEEE8max_sizeB7v160006Ev, symObjAddr: 0x23DC, symBinAddr: 0x100006248, symSize: 0xAC }
  - { offsetInCU: 0xB7DA, offset: 0xB7DA, size: 0x8, addend: 0x0, symName: __ZNSt3__18ios_base18__setstate_nothrowB7v160006Ej, symObjAddr: 0x2488, symBinAddr: 0x1000062F4, symSize: 0x64 }
  - { offsetInCU: 0xB80F, offset: 0xB80F, size: 0x8, addend: 0x0, symName: __ZNKSt3__19basic_iosIcNS_11char_traitsIcEEE10exceptionsB7v160006Ev, symObjAddr: 0x24EC, symBinAddr: 0x100006358, symSize: 0x24 }
  - { offsetInCU: 0xB835, offset: 0xB835, size: 0x8, addend: 0x0, symName: __ZNSt3__111char_traitsIcE6assignERcRKc, symObjAddr: 0x2520, symBinAddr: 0x10000638C, symSize: 0x24 }
  - { offsetInCU: 0xB866, offset: 0xB866, size: 0x8, addend: 0x0, symName: __ZNSt3__112basic_stringIcNS_11char_traitsIcEENS_9allocatorIcEEE18__get_long_pointerB7v160006Ev, symObjAddr: 0x2544, symBinAddr: 0x1000063B0, symSize: 0x28 }
  - { offsetInCU: 0xB88C, offset: 0xB88C, size: 0x8, addend: 0x0, symName: __ZNSt3__112basic_stringIcNS_11char_traitsIcEENS_9allocatorIcEEE15__set_long_sizeB7v160006Em, symObjAddr: 0x256C, symBinAddr: 0x1000063D8, symSize: 0x38 }
  - { offsetInCU: 0xB8C1, offset: 0xB8C1, size: 0x8, addend: 0x0, symName: __ZNSt3__112basic_stringIcNS_11char_traitsIcEENS_9allocatorIcEEE19__get_short_pointerB7v160006Ev, symObjAddr: 0x25A4, symBinAddr: 0x100006410, symSize: 0x28 }
  - { offsetInCU: 0xB8E7, offset: 0xB8E7, size: 0x8, addend: 0x0, symName: __ZNSt3__112basic_stringIcNS_11char_traitsIcEENS_9allocatorIcEEE16__set_short_sizeB7v160006Em, symObjAddr: 0x25CC, symBinAddr: 0x100006438, symSize: 0x78 }
  - { offsetInCU: 0xB91C, offset: 0xB91C, size: 0x8, addend: 0x0, symName: __ZNSt3__117__compressed_pairINS_12basic_stringIcNS_11char_traitsIcEENS_9allocatorIcEEE5__repES5_E5firstB7v160006Ev, symObjAddr: 0x2644, symBinAddr: 0x1000064B0, symSize: 0x24 }
  - { offsetInCU: 0xB942, offset: 0xB942, size: 0x8, addend: 0x0, symName: __ZNSt3__122__compressed_pair_elemINS_12basic_stringIcNS_11char_traitsIcEENS_9allocatorIcEEE5__repELi0ELb0EE5__getB7v160006Ev, symObjAddr: 0x2668, symBinAddr: 0x1000064D4, symSize: 0x14 }
  - { offsetInCU: 0xB968, offset: 0xB968, size: 0x8, addend: 0x0, symName: __ZNSt3__114pointer_traitsIPcE10pointer_toB7v160006ERc, symObjAddr: 0x267C, symBinAddr: 0x1000064E8, symSize: 0x14 }
  - { offsetInCU: 0xB98B, offset: 0xB98B, size: 0x8, addend: 0x0, symName: __ZNSt3__111char_traitsIcE11to_int_typeEc, symObjAddr: 0x2690, symBinAddr: 0x1000064FC, symSize: 0x14 }
  - { offsetInCU: 0xB9AE, offset: 0xB9AE, size: 0x8, addend: 0x0, symName: __ZNKSt3__112basic_stringIcNS_11char_traitsIcEENS_9allocatorIcEEE15__get_long_sizeB7v160006Ev, symObjAddr: 0x26A4, symBinAddr: 0x100006510, symSize: 0x28 }
  - { offsetInCU: 0xB9D4, offset: 0xB9D4, size: 0x8, addend: 0x0, symName: __ZNKSt3__112basic_stringIcNS_11char_traitsIcEENS_9allocatorIcEEE16__get_short_sizeB7v160006Ev, symObjAddr: 0x26CC, symBinAddr: 0x100006538, symSize: 0x34 }
  - { offsetInCU: 0xBA04, offset: 0xBA04, size: 0x8, addend: 0x0, symName: __ZNSt3__116allocator_traitsINS_9allocatorIcEEE8max_sizeB7v160006IS2_vEEmRKS2_, symObjAddr: 0x2700, symBinAddr: 0x10000656C, symSize: 0x24 }
  - { offsetInCU: 0xBA32, offset: 0xBA32, size: 0x8, addend: 0x0, symName: __ZNKSt3__112basic_stringIcNS_11char_traitsIcEENS_9allocatorIcEEE7__allocB7v160006Ev, symObjAddr: 0x2724, symBinAddr: 0x100006590, symSize: 0x24 }
  - { offsetInCU: 0xBA58, offset: 0xBA58, size: 0x8, addend: 0x0, symName: __ZNSt3__114numeric_limitsImE3maxB7v160006Ev, symObjAddr: 0x2748, symBinAddr: 0x1000065B4, symSize: 0x14 }
  - { offsetInCU: 0xBA6C, offset: 0xBA6C, size: 0x8, addend: 0x0, symName: __ZNKSt3__19allocatorIcE8max_sizeB7v160006Ev, symObjAddr: 0x275C, symBinAddr: 0x1000065C8, symSize: 0x14 }
  - { offsetInCU: 0xBA92, offset: 0xBA92, size: 0x8, addend: 0x0, symName: __ZNKSt3__117__compressed_pairINS_12basic_stringIcNS_11char_traitsIcEENS_9allocatorIcEEE5__repES5_E6secondB7v160006Ev, symObjAddr: 0x2770, symBinAddr: 0x1000065DC, symSize: 0x24 }
  - { offsetInCU: 0xBAB8, offset: 0xBAB8, size: 0x8, addend: 0x0, symName: __ZNKSt3__122__compressed_pair_elemINS_9allocatorIcEELi1ELb1EE5__getB7v160006Ev, symObjAddr: 0x2794, symBinAddr: 0x100006600, symSize: 0x14 }
  - { offsetInCU: 0xBADE, offset: 0xBADE, size: 0x8, addend: 0x0, symName: __ZNSt3__123__libcpp_numeric_limitsImLb1EE3maxB7v160006Ev, symObjAddr: 0x27A8, symBinAddr: 0x100006614, symSize: 0x8 }
  - { offsetInCU: 0xBAF2, offset: 0xBAF2, size: 0x8, addend: 0x0, symName: __ZNKSt3__18ios_base10exceptionsB7v160006Ev, symObjAddr: 0x27B0, symBinAddr: 0x10000661C, symSize: 0x18 }
  - { offsetInCU: 0xBB1A, offset: 0xBB1A, size: 0x8, addend: 0x0, symName: __ZNSt3__114numeric_limitsIlE3maxB7v160006Ev, symObjAddr: 0x27C8, symBinAddr: 0x100006634, symSize: 0x14 }
  - { offsetInCU: 0xBB2E, offset: 0xBB2E, size: 0x8, addend: 0x0, symName: __ZNSt3__115basic_streambufIcNS_11char_traitsIcEEE5sgetcB7v160006Ev, symObjAddr: 0x27DC, symBinAddr: 0x100006648, symSize: 0x70 }
  - { offsetInCU: 0xBB54, offset: 0xBB54, size: 0x8, addend: 0x0, symName: __ZNKSt3__15ctypeIcE2isB7v160006Ejc, symObjAddr: 0x284C, symBinAddr: 0x1000066B8, symSize: 0x7C }
  - { offsetInCU: 0xBB98, offset: 0xBB98, size: 0x8, addend: 0x0, symName: __ZNSt3__123__libcpp_numeric_limitsIlLb1EE3maxB7v160006Ev, symObjAddr: 0x28C8, symBinAddr: 0x100006734, symSize: 0x8 }
  - { offsetInCU: 0xBBAB, offset: 0xBBAB, size: 0x8, addend: 0x0, symName: __Z7isasciii, symObjAddr: 0x28D0, symBinAddr: 0x10000673C, symSize: 0x24 }
  - { offsetInCU: 0xBBD8, offset: 0xBBD8, size: 0x8, addend: 0x0, symName: __ZNSt3__112basic_stringIcNS_11char_traitsIcEENS_9allocatorIcEEEC2B7v160006Ev, symObjAddr: 0x28F4, symBinAddr: 0x100006760, symSize: 0x50 }
  - { offsetInCU: 0xBC02, offset: 0xBC02, size: 0x8, addend: 0x0, symName: __ZNSt3__112basic_stringIcNS_11char_traitsIcEENS_9allocatorIcEEE14__default_initB7v160006Ev, symObjAddr: 0x2944, symBinAddr: 0x1000067B0, symSize: 0x40 }
  - { offsetInCU: 0xBC28, offset: 0xBC28, size: 0x8, addend: 0x0, symName: __ZNSt3__110__list_impI7studentNS_9allocatorIS1_EEE5beginB7v160006Ev, symObjAddr: 0x2984, symBinAddr: 0x1000067F0, symSize: 0x30 }
  - { offsetInCU: 0xBC4E, offset: 0xBC4E, size: 0x8, addend: 0x0, symName: __ZNSt3__115__list_iteratorI7studentPvEC1B7v160006EPNS_16__list_node_baseIS1_S2_EEPKv, symObjAddr: 0x29B4, symBinAddr: 0x100006820, symSize: 0x3C }
  - { offsetInCU: 0xBC96, offset: 0xBC96, size: 0x8, addend: 0x0, symName: __ZNSt3__115__list_iteratorI7studentPvEC2B7v160006EPNS_16__list_node_baseIS1_S2_EEPKv, symObjAddr: 0x29F0, symBinAddr: 0x10000685C, symSize: 0x24 }
  - { offsetInCU: 0xBCDE, offset: 0xBCDE, size: 0x8, addend: 0x0, symName: __ZNSt3__110__list_impI7studentNS_9allocatorIS1_EEE3endB7v160006Ev, symObjAddr: 0x2A14, symBinAddr: 0x100006880, symSize: 0x3C }
  - { offsetInCU: 0xBD04, offset: 0xBD04, size: 0x8, addend: 0x0, symName: __ZNSt3__115__list_iteratorI7studentPvEppB7v160006Ev, symObjAddr: 0x2A80, symBinAddr: 0x1000068EC, symSize: 0x20 }
  - { offsetInCU: 0xBD2A, offset: 0xBD2A, size: 0x8, addend: 0x0, symName: __ZNSt3__114pointer_traitsIP7studentE10pointer_toB7v160006ERS1_, symObjAddr: 0x2AA0, symBinAddr: 0x10000690C, symSize: 0x14 }
  - { offsetInCU: 0xBD4D, offset: 0xBD4D, size: 0x8, addend: 0x0, symName: __ZNSt3__111char_traitsIcE7compareEPKcS3_m, symObjAddr: 0x2AB4, symBinAddr: 0x100006920, symSize: 0x6C }
  - { offsetInCU: 0xBD8C, offset: 0xBD8C, size: 0x8, addend: 0x0, symName: __ZNSt3__14listI7studentNS_9allocatorIS1_EEEC2B7v160006Ev, symObjAddr: 0x2B54, symBinAddr: 0x1000069C0, symSize: 0x3C }
  - { offsetInCU: 0xBDB6, offset: 0xBDB6, size: 0x8, addend: 0x0, symName: __ZNSt3__110__list_impI7studentNS_9allocatorIS1_EEEC2Ev, symObjAddr: 0x2B90, symBinAddr: 0x1000069FC, symSize: 0x50 }
  - { offsetInCU: 0xBDE2, offset: 0xBDE2, size: 0x8, addend: 0x0, symName: __ZNSt3__116__list_node_baseI7studentPvEC1B7v160006Ev, symObjAddr: 0x2BF0, symBinAddr: 0x100006A5C, symSize: 0x2C }
  - { offsetInCU: 0xBE11, offset: 0xBE11, size: 0x8, addend: 0x0, symName: __ZNSt3__117__compressed_pairImNS_9allocatorINS_11__list_nodeI7studentPvEEEEEC1B7v160006IiNS_18__default_init_tagEEEOT_OT0_, symObjAddr: 0x2C1C, symBinAddr: 0x100006A88, symSize: 0x3C }
  - { offsetInCU: 0xBE69, offset: 0xBE69, size: 0x8, addend: 0x0, symName: __ZNSt3__116__list_node_baseI7studentPvEC2B7v160006Ev, symObjAddr: 0x2C58, symBinAddr: 0x100006AC4, symSize: 0x4C }
  - { offsetInCU: 0xBE93, offset: 0xBE93, size: 0x8, addend: 0x0, symName: __ZNSt3__117__compressed_pairImNS_9allocatorINS_11__list_nodeI7studentPvEEEEEC2B7v160006IiNS_18__default_init_tagEEEOT_OT0_, symObjAddr: 0x2CA4, symBinAddr: 0x100006B10, symSize: 0x40 }
  - { offsetInCU: 0xBEEB, offset: 0xBEEB, size: 0x8, addend: 0x0, symName: __ZNSt3__122__compressed_pair_elemImLi0ELb0EEC2B7v160006IivEEOT_, symObjAddr: 0x2CE4, symBinAddr: 0x100006B50, symSize: 0x24 }
  - { offsetInCU: 0xBF2D, offset: 0xBF2D, size: 0x8, addend: 0x0, symName: __ZNSt3__122__compressed_pair_elemINS_9allocatorINS_11__list_nodeI7studentPvEEEELi1ELb1EEC2B7v160006ENS_18__default_init_tagE, symObjAddr: 0x2D08, symBinAddr: 0x100006B74, symSize: 0x2C }
  - { offsetInCU: 0xBF62, offset: 0xBF62, size: 0x8, addend: 0x0, symName: __ZNSt3__19allocatorINS_11__list_nodeI7studentPvEEEC2B7v160006Ev, symObjAddr: 0x2D34, symBinAddr: 0x100006BA0, symSize: 0x2C }
  - { offsetInCU: 0xBF8C, offset: 0xBF8C, size: 0x8, addend: 0x0, symName: __ZNSt3__116__non_trivial_ifILb1ENS_9allocatorINS_11__list_nodeI7studentPvEEEEEC2B7v160006Ev, symObjAddr: 0x2D60, symBinAddr: 0x100006BCC, symSize: 0x14 }
  - { offsetInCU: 0xBFB6, offset: 0xBFB6, size: 0x8, addend: 0x0, symName: __ZNSt3__14listI7studentNS_9allocatorIS1_EEE15__allocate_nodeB7v160006ERNS2_INS_11__list_nodeIS1_PvEEEE, symObjAddr: 0x2D74, symBinAddr: 0x100006BE0, symSize: 0x70 }
  - { offsetInCU: 0xBFFA, offset: 0xBFFA, size: 0x8, addend: 0x0, symName: __ZNSt3__116allocator_traitsINS_9allocatorINS_11__list_nodeI7studentPvEEEEE9constructB7v160006IS3_JRKS3_EvEEvRS6_PT_DpOT0_, symObjAddr: 0x2DE4, symBinAddr: 0x100006C50, symSize: 0x34 }
  - { offsetInCU: 0xC051, offset: 0xC051, size: 0x8, addend: 0x0, symName: __ZNKSt3__110unique_ptrINS_11__list_nodeI7studentPvEENS_22__allocator_destructorINS_9allocatorIS4_EEEEEptB7v160006Ev, symObjAddr: 0x2E18, symBinAddr: 0x100006C84, symSize: 0x28 }
  - { offsetInCU: 0xC077, offset: 0xC077, size: 0x8, addend: 0x0, symName: __ZNSt3__14listI7studentNS_9allocatorIS1_EEE20__link_nodes_at_backEPNS_16__list_node_baseIS1_PvEES8_, symObjAddr: 0x2E40, symBinAddr: 0x100006CAC, symSize: 0x60 }
  - { offsetInCU: 0xC0BD, offset: 0xC0BD, size: 0x8, addend: 0x0, symName: __ZNKSt3__110unique_ptrINS_11__list_nodeI7studentPvEENS_22__allocator_destructorINS_9allocatorIS4_EEEEE3getB7v160006Ev, symObjAddr: 0x2EA0, symBinAddr: 0x100006D0C, symSize: 0x28 }
  - { offsetInCU: 0xC0E3, offset: 0xC0E3, size: 0x8, addend: 0x0, symName: __ZNSt3__111__list_nodeI7studentPvE9__as_linkB7v160006Ev, symObjAddr: 0x2EC8, symBinAddr: 0x100006D34, symSize: 0x24 }
  - { offsetInCU: 0xC109, offset: 0xC109, size: 0x8, addend: 0x0, symName: __ZNSt3__110unique_ptrINS_11__list_nodeI7studentPvEENS_22__allocator_destructorINS_9allocatorIS4_EEEEE7releaseB7v160006Ev, symObjAddr: 0x2EEC, symBinAddr: 0x100006D58, symSize: 0x44 }
  - { offsetInCU: 0xC13E, offset: 0xC13E, size: 0x8, addend: 0x0, symName: __ZNSt3__110unique_ptrINS_11__list_nodeI7studentPvEENS_22__allocator_destructorINS_9allocatorIS4_EEEEED1B7v160006Ev, symObjAddr: 0x2F30, symBinAddr: 0x100006D9C, symSize: 0x2C }
  - { offsetInCU: 0xC168, offset: 0xC168, size: 0x8, addend: 0x0, symName: __ZNSt3__116allocator_traitsINS_9allocatorINS_11__list_nodeI7studentPvEEEEE8allocateB7v160006ERS6_m, symObjAddr: 0x2F5C, symBinAddr: 0x100006DC8, symSize: 0x2C }
  - { offsetInCU: 0xC19B, offset: 0xC19B, size: 0x8, addend: 0x0, symName: __ZNSt3__122__allocator_destructorINS_9allocatorINS_11__list_nodeI7studentPvEEEEEC1B7v160006ERS6_m, symObjAddr: 0x2F88, symBinAddr: 0x100006DF4, symSize: 0x3C }
  - { offsetInCU: 0xC1E6, offset: 0xC1E6, size: 0x8, addend: 0x0, symName: __ZNSt3__110unique_ptrINS_11__list_nodeI7studentPvEENS_22__allocator_destructorINS_9allocatorIS4_EEEEEC1B7v160006ILb1EvEEPS4_NS_16__dependent_typeINS_27__unique_ptr_deleter_sfinaeIS8_EEXT_EE20__good_rval_ref_typeE, symObjAddr: 0x2FC4, symBinAddr: 0x100006E30, symSize: 0x3C }
  - { offsetInCU: 0xC237, offset: 0xC237, size: 0x8, addend: 0x0, symName: __ZNSt3__19allocatorINS_11__list_nodeI7studentPvEEE8allocateB7v160006Em, symObjAddr: 0x3000, symBinAddr: 0x100006E6C, symSize: 0x5C }
  - { offsetInCU: 0xC275, offset: 0xC275, size: 0x8, addend: 0x0, symName: __ZNSt3__116allocator_traitsINS_9allocatorINS_11__list_nodeI7studentPvEEEEE8max_sizeB7v160006IS6_vEEmRKS6_, symObjAddr: 0x305C, symBinAddr: 0x100006EC8, symSize: 0x24 }
  - { offsetInCU: 0xC2A3, offset: 0xC2A3, size: 0x8, addend: 0x0, symName: __ZNKSt3__19allocatorINS_11__list_nodeI7studentPvEEE8max_sizeB7v160006Ev, symObjAddr: 0x30DC, symBinAddr: 0x100006F48, symSize: 0x20 }
  - { offsetInCU: 0xC2C9, offset: 0xC2C9, size: 0x8, addend: 0x0, symName: __ZNSt3__122__allocator_destructorINS_9allocatorINS_11__list_nodeI7studentPvEEEEEC2B7v160006ERS6_m, symObjAddr: 0x3120, symBinAddr: 0x100006F8C, symSize: 0x2C }
  - { offsetInCU: 0xC30F, offset: 0xC30F, size: 0x8, addend: 0x0, symName: __ZNSt3__110unique_ptrINS_11__list_nodeI7studentPvEENS_22__allocator_destructorINS_9allocatorIS4_EEEEEC2B7v160006ILb1EvEEPS4_NS_16__dependent_typeINS_27__unique_ptr_deleter_sfinaeIS8_EEXT_EE20__good_rval_ref_typeE, symObjAddr: 0x314C, symBinAddr: 0x100006FB8, symSize: 0x48 }
  - { offsetInCU: 0xC360, offset: 0xC360, size: 0x8, addend: 0x0, symName: __ZNSt3__117__compressed_pairIPNS_11__list_nodeI7studentPvEENS_22__allocator_destructorINS_9allocatorIS4_EEEEEC1B7v160006IRS5_S9_EEOT_OT0_, symObjAddr: 0x3194, symBinAddr: 0x100007000, symSize: 0x3C }
  - { offsetInCU: 0xC3B8, offset: 0xC3B8, size: 0x8, addend: 0x0, symName: __ZNSt3__117__compressed_pairIPNS_11__list_nodeI7studentPvEENS_22__allocator_destructorINS_9allocatorIS4_EEEEEC2B7v160006IRS5_S9_EEOT_OT0_, symObjAddr: 0x31D0, symBinAddr: 0x10000703C, symSize: 0x48 }
  - { offsetInCU: 0xC410, offset: 0xC410, size: 0x8, addend: 0x0, symName: __ZNSt3__122__compressed_pair_elemIPNS_11__list_nodeI7studentPvEELi0ELb0EEC2B7v160006IRS5_vEEOT_, symObjAddr: 0x3218, symBinAddr: 0x100007084, symSize: 0x24 }
  - { offsetInCU: 0xC452, offset: 0xC452, size: 0x8, addend: 0x0, symName: __ZNSt3__122__compressed_pair_elemINS_22__allocator_destructorINS_9allocatorINS_11__list_nodeI7studentPvEEEEEELi1ELb0EEC2B7v160006IS8_vEEOT_, symObjAddr: 0x323C, symBinAddr: 0x1000070A8, symSize: 0x24 }
  - { offsetInCU: 0xC494, offset: 0xC494, size: 0x8, addend: 0x0, symName: __ZNSt3__19allocatorINS_11__list_nodeI7studentPvEEE9constructB7v160006IS2_JRKS2_EEEvPT_DpOT0_, symObjAddr: 0x3260, symBinAddr: 0x1000070CC, symSize: 0x30 }
  - { offsetInCU: 0xC4EA, offset: 0xC4EA, size: 0x8, addend: 0x0, symName: __ZN7studentC1ERKS_, symObjAddr: 0x3290, symBinAddr: 0x1000070FC, symSize: 0x34 }
  - { offsetInCU: 0xC51F, offset: 0xC51F, size: 0x8, addend: 0x0, symName: __ZN7studentC2ERKS_, symObjAddr: 0x32C4, symBinAddr: 0x100007130, symSize: 0xBC }
  - { offsetInCU: 0xC554, offset: 0xC554, size: 0x8, addend: 0x0, symName: __ZNKSt3__117__compressed_pairIPNS_11__list_nodeI7studentPvEENS_22__allocator_destructorINS_9allocatorIS4_EEEEE5firstB7v160006Ev, symObjAddr: 0x3380, symBinAddr: 0x1000071EC, symSize: 0x24 }
  - { offsetInCU: 0xC57A, offset: 0xC57A, size: 0x8, addend: 0x0, symName: __ZNKSt3__122__compressed_pair_elemIPNS_11__list_nodeI7studentPvEELi0ELb0EE5__getB7v160006Ev, symObjAddr: 0x33A4, symBinAddr: 0x100007210, symSize: 0x14 }
  - { offsetInCU: 0xC5A0, offset: 0xC5A0, size: 0x8, addend: 0x0, symName: __ZNSt3__117__compressed_pairIPNS_11__list_nodeI7studentPvEENS_22__allocator_destructorINS_9allocatorIS4_EEEEE5firstB7v160006Ev, symObjAddr: 0x33B8, symBinAddr: 0x100007224, symSize: 0x24 }
  - { offsetInCU: 0xC5C6, offset: 0xC5C6, size: 0x8, addend: 0x0, symName: __ZNSt3__122__compressed_pair_elemIPNS_11__list_nodeI7studentPvEELi0ELb0EE5__getB7v160006Ev, symObjAddr: 0x33DC, symBinAddr: 0x100007248, symSize: 0x14 }
  - { offsetInCU: 0xC5EC, offset: 0xC5EC, size: 0x8, addend: 0x0, symName: __ZNSt3__110unique_ptrINS_11__list_nodeI7studentPvEENS_22__allocator_destructorINS_9allocatorIS4_EEEEED2B7v160006Ev, symObjAddr: 0x33F0, symBinAddr: 0x10000725C, symSize: 0x30 }
  - { offsetInCU: 0xC616, offset: 0xC616, size: 0x8, addend: 0x0, symName: __ZNSt3__110unique_ptrINS_11__list_nodeI7studentPvEENS_22__allocator_destructorINS_9allocatorIS4_EEEEE5resetB7v160006EPS4_, symObjAddr: 0x3420, symBinAddr: 0x10000728C, symSize: 0x78 }
  - { offsetInCU: 0xC65A, offset: 0xC65A, size: 0x8, addend: 0x0, symName: __ZNSt3__117__compressed_pairIPNS_11__list_nodeI7studentPvEENS_22__allocator_destructorINS_9allocatorIS4_EEEEE6secondB7v160006Ev, symObjAddr: 0x3498, symBinAddr: 0x100007304, symSize: 0x28 }
  - { offsetInCU: 0xC680, offset: 0xC680, size: 0x8, addend: 0x0, symName: __ZNSt3__122__allocator_destructorINS_9allocatorINS_11__list_nodeI7studentPvEEEEEclB7v160006EPS5_, symObjAddr: 0x34C0, symBinAddr: 0x10000732C, symSize: 0x34 }
  - { offsetInCU: 0xC6B4, offset: 0xC6B4, size: 0x8, addend: 0x0, symName: __ZNSt3__122__compressed_pair_elemINS_22__allocator_destructorINS_9allocatorINS_11__list_nodeI7studentPvEEEEEELi1ELb0EE5__getB7v160006Ev, symObjAddr: 0x34F4, symBinAddr: 0x100007360, symSize: 0x14 }
  - { offsetInCU: 0xC6DA, offset: 0xC6DA, size: 0x8, addend: 0x0, symName: __ZNSt3__14listI7studentNS_9allocatorIS1_EEEC2ERKS4_, symObjAddr: 0x3508, symBinAddr: 0x100007374, symSize: 0xE4 }
  - { offsetInCU: 0xC742, offset: 0xC742, size: 0x8, addend: 0x0, symName: __ZNSt3__116allocator_traitsINS_9allocatorINS_11__list_nodeI7studentPvEEEEE37select_on_container_copy_constructionB7v160006IS6_vvEES6_RKS6_, symObjAddr: 0x35EC, symBinAddr: 0x100007458, symSize: 0x10 }
  - { offsetInCU: 0xC771, offset: 0xC771, size: 0x8, addend: 0x0, symName: __ZNKSt3__110__list_impI7studentNS_9allocatorIS1_EEE12__node_allocB7v160006Ev, symObjAddr: 0x35FC, symBinAddr: 0x100007468, symSize: 0x28 }
  - { offsetInCU: 0xC797, offset: 0xC797, size: 0x8, addend: 0x0, symName: __ZNSt3__110__list_impI7studentNS_9allocatorIS1_EEEC2EONS2_INS_11__list_nodeIS1_PvEEEE, symObjAddr: 0x3624, symBinAddr: 0x100007490, symSize: 0x54 }
  - { offsetInCU: 0xC7D2, offset: 0xC7D2, size: 0x8, addend: 0x0, symName: __ZNKSt3__14listI7studentNS_9allocatorIS1_EEE5beginB7v160006Ev, symObjAddr: 0x3678, symBinAddr: 0x1000074E4, symSize: 0x2C }
  - { offsetInCU: 0xC7F8, offset: 0xC7F8, size: 0x8, addend: 0x0, symName: __ZNKSt3__14listI7studentNS_9allocatorIS1_EEE3endB7v160006Ev, symObjAddr: 0x36A4, symBinAddr: 0x100007510, symSize: 0x2C }
  - { offsetInCU: 0xC81E, offset: 0xC81E, size: 0x8, addend: 0x0, symName: __ZNKSt3__121__list_const_iteratorI7studentPvEdeB7v160006Ev, symObjAddr: 0x3704, symBinAddr: 0x100007570, symSize: 0x2C }
  - { offsetInCU: 0xC844, offset: 0xC844, size: 0x8, addend: 0x0, symName: __ZNSt3__121__list_const_iteratorI7studentPvEppB7v160006Ev, symObjAddr: 0x3730, symBinAddr: 0x10000759C, symSize: 0x20 }
  - { offsetInCU: 0xC86A, offset: 0xC86A, size: 0x8, addend: 0x0, symName: __ZNKSt3__117__compressed_pairImNS_9allocatorINS_11__list_nodeI7studentPvEEEEE6secondB7v160006Ev, symObjAddr: 0x3750, symBinAddr: 0x1000075BC, symSize: 0x24 }
  - { offsetInCU: 0xC890, offset: 0xC890, size: 0x8, addend: 0x0, symName: __ZNKSt3__122__compressed_pair_elemINS_9allocatorINS_11__list_nodeI7studentPvEEEELi1ELb1EE5__getB7v160006Ev, symObjAddr: 0x3774, symBinAddr: 0x1000075E0, symSize: 0x14 }
  - { offsetInCU: 0xC8BB, offset: 0xC8BB, size: 0x8, addend: 0x0, symName: __ZNSt3__117__compressed_pairImNS_9allocatorINS_11__list_nodeI7studentPvEEEEEC1B7v160006IiS6_EEOT_OT0_, symObjAddr: 0x3788, symBinAddr: 0x1000075F4, symSize: 0x3C }
  - { offsetInCU: 0xC913, offset: 0xC913, size: 0x8, addend: 0x0, symName: __ZNSt3__117__compressed_pairImNS_9allocatorINS_11__list_nodeI7studentPvEEEEEC2B7v160006IiS6_EEOT_OT0_, symObjAddr: 0x37C4, symBinAddr: 0x100007630, symSize: 0x44 }
  - { offsetInCU: 0xC96B, offset: 0xC96B, size: 0x8, addend: 0x0, symName: __ZNSt3__122__compressed_pair_elemINS_9allocatorINS_11__list_nodeI7studentPvEEEELi1ELb1EEC2B7v160006IS6_vEEOT_, symObjAddr: 0x3808, symBinAddr: 0x100007674, symSize: 0x18 }
  - { offsetInCU: 0xC9AD, offset: 0xC9AD, size: 0x8, addend: 0x0, symName: __ZNKSt3__110__list_impI7studentNS_9allocatorIS1_EEE5beginB7v160006Ev, symObjAddr: 0x3820, symBinAddr: 0x10000768C, symSize: 0x30 }
  - { offsetInCU: 0xC9D3, offset: 0xC9D3, size: 0x8, addend: 0x0, symName: __ZNSt3__121__list_const_iteratorI7studentPvEC1B7v160006EPNS_16__list_node_baseIS1_S2_EEPKv, symObjAddr: 0x3850, symBinAddr: 0x1000076BC, symSize: 0x3C }
  - { offsetInCU: 0xCA1B, offset: 0xCA1B, size: 0x8, addend: 0x0, symName: __ZNSt3__121__list_const_iteratorI7studentPvEC2B7v160006EPNS_16__list_node_baseIS1_S2_EEPKv, symObjAddr: 0x388C, symBinAddr: 0x1000076F8, symSize: 0x24 }
  - { offsetInCU: 0xCA63, offset: 0xCA63, size: 0x8, addend: 0x0, symName: __ZNKSt3__110__list_impI7studentNS_9allocatorIS1_EEE3endB7v160006Ev, symObjAddr: 0x38B0, symBinAddr: 0x10000771C, symSize: 0x3C }
...
